(lp0
(dp1
S'hand_2'
p2
(I213
I381
tp3
sS'foot_2'
p4
(I193
I455
tp5
sS'crotch'
p6
(I216
I362
tp7
sS'foot_1'
p8
(I227
I461
tp9
sS'elbow_2'
p10
(I209
I341
tp11
sS'knee_1'
p12
(I221
I412
tp13
sS'knee_2'
p14
(I218
I412
tp15
sS'hand_1'
p16
(I227
I381
tp17
sS'elbow_1'
p18
(I218
I342
tp19
sS'neck'
p20
(I216
I302
tp21
sa(dp22
g2
(I242
I379
tp23
sg4
(I235
I459
tp24
sg6
(I230
I361
tp25
sg8
(I226
I461
tp26
sg10
(I231
I341
tp27
sg12
(I229
I411
tp28
sg14
(I243
I409
tp29
sg16
(I227
I381
tp30
sg18
(I223
I341
tp31
sg20
(I230
I301
tp32
sa(dp33
g2
(I262
I378
tp34
sg4
(I256
I460
tp35
sg6
(I241
I361
tp36
sg8
(I226
I460
tp37
sg10
(I247
I341
tp38
sg12
(I235
I411
tp39
sg14
(I259
I410
tp40
sg16
(I229
I380
tp41
sg18
(I231
I340
tp42
sg20
(I241
I301
tp43
sa(dp44
g2
(I281
I376
tp45
sg4
(I272
I460
tp46
sg6
(I253
I362
tp47
sg8
(I228
I458
tp48
sg10
(I262
I341
tp49
sg12
(I249
I412
tp50
sg14
(I264
I411
tp51
sg16
(I234
I379
tp52
sg18
(I240
I340
tp53
sg20
(I253
I302
tp54
sa(dp55
g2
(I285
I377
tp56
sg4
(I277
I460
tp57
sg6
(I268
I360
tp58
sg8
(I241
I453
tp59
sg10
(I272
I340
tp60
sg12
(I266
I410
tp61
sg14
(I274
I410
tp62
sg16
(I257
I379
tp63
sg18
(I259
I339
tp64
sg20
(I268
I300
tp65
sa(dp66
g2
(I294
I379
tp67
sg4
(I277
I460
tp68
sg6
(I284
I360
tp69
sg8
(I278
I457
tp70
sg10
(I282
I340
tp71
sg12
(I293
I410
tp72
sg14
(I282
I410
tp73
sg16
(I282
I380
tp74
sg18
(I279
I340
tp75
sg20
(I284
I300
tp76
sa(dp77
g2
(I290
I381
tp78
sg4
(I278
I460
tp79
sg6
(I300
I362
tp80
sg8
(I305
I460
tp81
sg10
(I290
I341
tp82
sg12
(I313
I410
tp83
sg14
(I291
I411
tp84
sg16
(I319
I379
tp85
sg18
(I306
I342
tp86
sg20
(I300
I302
tp87
sa(dp88
g2
(I292
I379
tp89
sg4
(I276
I454
tp90
sg6
(I311
I362
tp91
sg8
(I332
I460
tp92
sg10
(I296
I339
tp93
sg12
(I324
I410
tp94
sg14
(I302
I411
tp95
sg16
(I342
I375
tp96
sg18
(I323
I340
tp97
sg20
(I311
I302
tp98
sa.